target datalayout = "e-m:e-p270:32:32-p271:32:32-p272:64:64-i64:64-i128:128-f80:128-n8:16:32:64-S128"
target triple = "x86_64-pc-linux-gnu"

%struct.pmix_class_t = type { ptr, ptr, ptr, ptr, i32, i32, ptr, ptr, i64 }
%struct.pmix_lock_t = type { i32, %struct.pmix_mutex_t, %union.pthread_cond_t, i8 }
%struct.pmix_mutex_t = type { %struct.pmix_object_t, %union.pthread_mutex_t }
%struct.pmix_object_t = type { %union.pthread_mutex_t, ptr, i32, %struct.pmix_tma }
%struct.pmix_tma = type { ptr, ptr, ptr, ptr, ptr, ptr, ptr, ptr }
%union.pthread_mutex_t = type { %struct.__pthread_mutex_s }
%struct.__pthread_mutex_s = type { i32, i32, i32, i32, i32, i16, i16, %struct.__pthread_internal_list }
%struct.__pthread_internal_list = type { ptr, ptr }
%union.pthread_cond_t = type { %struct.__pthread_cond_s }
%struct.__pthread_cond_s = type { %union.__atomic_wide_counter, %union.__atomic_wide_counter, [2 x i32], [2 x i32], i32, i32, [2 x i32] }
%union.__atomic_wide_counter = type { i64 }
%struct.pmix_group_tracker_t = type { %struct.pmix_object_t, %struct.pmix_lock_t, i32, i64, i64, ptr, ptr, i64, ptr, i64, ptr, i64, ptr, ptr, ptr }

@pmix_class_init_epoch = external global i32, align 4
@pmix_mutex_t_class = external global %struct.pmix_class_t, align 8

; Function Attrs: inlinehint nounwind uwtable
define internal void @pmix_obj_run_constructors(ptr noundef %0) #2 {
  %2 = alloca ptr, align 8
  %3 = alloca ptr, align 8
  store ptr %0, ptr %2, align 8, !tbaa !87
  call void @llvm.lifetime.start.p0(i64 8, ptr %3) #11
  %4 = load ptr, ptr %2, align 8, !tbaa !87
  %5 = getelementptr inbounds nuw %struct.pmix_object_t, ptr %4, i32 0, i32 1
  %6 = load ptr, ptr %5, align 8, !tbaa !14
  %7 = getelementptr inbounds nuw %struct.pmix_class_t, ptr %6, i32 0, i32 6
  %8 = load ptr, ptr %7, align 8, !tbaa !108
  store ptr %8, ptr %3, align 8, !tbaa !3
  br label %9

9:                                                ; preds = %13, %1
  %10 = load ptr, ptr %3, align 8, !tbaa !3
  %11 = load ptr, ptr %10, align 8, !tbaa !3
  %12 = icmp ne ptr null, %11
  br i1 %12, label %13, label %19

13:                                               ; preds = %9
  %14 = load ptr, ptr %3, align 8, !tbaa !3
  %15 = load ptr, ptr %14, align 8, !tbaa !3
  %16 = load ptr, ptr %2, align 8, !tbaa !87
  call void %15(ptr noundef %16)
  %17 = load ptr, ptr %3, align 8, !tbaa !3
  %18 = getelementptr inbounds nuw ptr, ptr %17, i32 1
  store ptr %18, ptr %3, align 8, !tbaa !3
  br label %9, !llvm.loop !109

19:                                               ; preds = %9
  call void @llvm.lifetime.end.p0(i64 8, ptr %3) #11
  ret void
}

; Function Attrs: inlinehint nounwind uwtable
define internal void @pmix_obj_construct_tma(ptr noundef %0, ptr noundef %1) #2 {
  %3 = alloca ptr, align 8
  %4 = alloca ptr, align 8
  store ptr %0, ptr %3, align 8, !tbaa !87
  store ptr %1, ptr %4, align 8, !tbaa !98
  %5 = load ptr, ptr %4, align 8, !tbaa !98
  %6 = icmp eq ptr null, %5
  br i1 %6, label %7, label %32

7:                                                ; preds = %2
  %8 = load ptr, ptr %3, align 8, !tbaa !87
  %9 = getelementptr inbounds nuw %struct.pmix_object_t, ptr %8, i32 0, i32 3
  %10 = getelementptr inbounds nuw %struct.pmix_tma, ptr %9, i32 0, i32 0
  store ptr null, ptr %10, align 8, !tbaa !100
  %11 = load ptr, ptr %3, align 8, !tbaa !87
  %12 = getelementptr inbounds nuw %struct.pmix_object_t, ptr %11, i32 0, i32 3
  %13 = getelementptr inbounds nuw %struct.pmix_tma, ptr %12, i32 0, i32 1
  store ptr null, ptr %13, align 8, !tbaa !101
  %14 = load ptr, ptr %3, align 8, !tbaa !87
  %15 = getelementptr inbounds nuw %struct.pmix_object_t, ptr %14, i32 0, i32 3
  %16 = getelementptr inbounds nuw %struct.pmix_tma, ptr %15, i32 0, i32 2
  store ptr null, ptr %16, align 8, !tbaa !102
  %17 = load ptr, ptr %3, align 8, !tbaa !87
  %18 = getelementptr inbounds nuw %struct.pmix_object_t, ptr %17, i32 0, i32 3
  %19 = getelementptr inbounds nuw %struct.pmix_tma, ptr %18, i32 0, i32 3
  store ptr null, ptr %19, align 8, !tbaa !103
  %20 = load ptr, ptr %3, align 8, !tbaa !87
  %21 = getelementptr inbounds nuw %struct.pmix_object_t, ptr %20, i32 0, i32 3
  %22 = getelementptr inbounds nuw %struct.pmix_tma, ptr %21, i32 0, i32 4
  store ptr null, ptr %22, align 8, !tbaa !104
  %23 = load ptr, ptr %3, align 8, !tbaa !87
  %24 = getelementptr inbounds nuw %struct.pmix_object_t, ptr %23, i32 0, i32 3
  %25 = getelementptr inbounds nuw %struct.pmix_tma, ptr %24, i32 0, i32 5
  store ptr null, ptr %25, align 8, !tbaa !89
  %26 = load ptr, ptr %3, align 8, !tbaa !87
  %27 = getelementptr inbounds nuw %struct.pmix_object_t, ptr %26, i32 0, i32 3
  %28 = getelementptr inbounds nuw %struct.pmix_tma, ptr %27, i32 0, i32 6
  store ptr null, ptr %28, align 8, !tbaa !105
  %29 = load ptr, ptr %3, align 8, !tbaa !87
  %30 = getelementptr inbounds nuw %struct.pmix_object_t, ptr %29, i32 0, i32 3
  %31 = getelementptr inbounds nuw %struct.pmix_tma, ptr %30, i32 0, i32 7
  store ptr null, ptr %31, align 8, !tbaa !106
  br label %36

32:                                               ; preds = %2
  %33 = load ptr, ptr %3, align 8, !tbaa !87
  %34 = getelementptr inbounds nuw %struct.pmix_object_t, ptr %33, i32 0, i32 3
  %35 = load ptr, ptr %4, align 8, !tbaa !98
  call void @llvm.memcpy.p0.p0.i64(ptr align 8 %34, ptr align 8 %35, i64 64, i1 false), !tbaa.struct !107
  br label %36

36:                                               ; preds = %32, %7
  ret void
}

; Function Attrs: nounwind uwtable
define internal void @gtcon(ptr noundef %0) #0 {
  %2 = alloca ptr, align 8
  store ptr %0, ptr %2, align 8, !tbaa !3
  br label %3

3:                                                ; preds = %1
  br label %4

4:                                                ; preds = %3
  br label %5

5:                                                ; preds = %4
  br label %6

6:                                                ; preds = %5
  %7 = load i32, ptr @pmix_class_init_epoch, align 4, !tbaa !7
  %8 = load i32, ptr getelementptr inbounds nuw (%struct.pmix_class_t, ptr @pmix_mutex_t_class, i32 0, i32 4), align 8, !tbaa !9
  %9 = icmp ne i32 %7, %8
  br i1 %9, label %10, label %11

10:                                               ; preds = %6
  call void @pmix_class_initialize(ptr noundef @pmix_mutex_t_class)
  br label %11

11:                                               ; preds = %10, %6
  %12 = load ptr, ptr %2, align 8, !tbaa !3
  %13 = getelementptr inbounds nuw %struct.pmix_group_tracker_t, ptr %12, i32 0, i32 1
  %14 = getelementptr inbounds nuw %struct.pmix_lock_t, ptr %13, i32 0, i32 1
  %15 = getelementptr inbounds nuw %struct.pmix_object_t, ptr %14, i32 0, i32 1
  store ptr @pmix_mutex_t_class, ptr %15, align 8, !tbaa !14
  %16 = load ptr, ptr %2, align 8, !tbaa !3
  %17 = getelementptr inbounds nuw %struct.pmix_group_tracker_t, ptr %16, i32 0, i32 1
  %18 = getelementptr inbounds nuw %struct.pmix_lock_t, ptr %17, i32 0, i32 1
  %19 = getelementptr inbounds nuw %struct.pmix_object_t, ptr %18, i32 0, i32 2
  store i32 1, ptr %19, align 8, !tbaa !17
  %20 = load ptr, ptr %2, align 8, !tbaa !3
  %21 = getelementptr inbounds nuw %struct.pmix_group_tracker_t, ptr %20, i32 0, i32 1
  %22 = getelementptr inbounds nuw %struct.pmix_lock_t, ptr %21, i32 0, i32 1
  call void @pmix_obj_construct_tma(ptr noundef %22, ptr noundef null)
  %23 = load ptr, ptr %2, align 8, !tbaa !3
  %24 = getelementptr inbounds nuw %struct.pmix_group_tracker_t, ptr %23, i32 0, i32 1
  %25 = getelementptr inbounds nuw %struct.pmix_lock_t, ptr %24, i32 0, i32 1
  call void @pmix_obj_run_constructors(ptr noundef %25)
  br label %26

26:                                               ; preds = %11
  br label %27

27:                                               ; preds = %26
  br label %28

28:                                               ; preds = %27
  %29 = load ptr, ptr %2, align 8, !tbaa !3
  %30 = getelementptr inbounds nuw %struct.pmix_group_tracker_t, ptr %29, i32 0, i32 1
  %31 = getelementptr inbounds nuw %struct.pmix_lock_t, ptr %30, i32 0, i32 2
  %32 = call i32 @pthread_cond_init(ptr noundef %31, ptr noundef null) #11
  %33 = load ptr, ptr %2, align 8, !tbaa !3
  %34 = getelementptr inbounds nuw %struct.pmix_group_tracker_t, ptr %33, i32 0, i32 1
  %35 = getelementptr inbounds nuw %struct.pmix_lock_t, ptr %34, i32 0, i32 3
  store volatile i8 1, ptr %35, align 8, !tbaa !18
  br label %36

36:                                               ; preds = %28
  %37 = load ptr, ptr %2, align 8, !tbaa !3
  %38 = getelementptr inbounds nuw %struct.pmix_group_tracker_t, ptr %37, i32 0, i32 2
  store i32 0, ptr %38, align 8, !tbaa !25
  %39 = load ptr, ptr %2, align 8, !tbaa !3
  %40 = getelementptr inbounds nuw %struct.pmix_group_tracker_t, ptr %39, i32 0, i32 3
  store i64 0, ptr %40, align 8, !tbaa !26
  %41 = load ptr, ptr %2, align 8, !tbaa !3
  %42 = getelementptr inbounds nuw %struct.pmix_group_tracker_t, ptr %41, i32 0, i32 4
  store i64 0, ptr %42, align 8, !tbaa !27
  %43 = load ptr, ptr %2, align 8, !tbaa !3
  %44 = getelementptr inbounds nuw %struct.pmix_group_tracker_t, ptr %43, i32 0, i32 5
  store ptr null, ptr %44, align 8, !tbaa !28
  %45 = load ptr, ptr %2, align 8, !tbaa !3
  %46 = getelementptr inbounds nuw %struct.pmix_group_tracker_t, ptr %45, i32 0, i32 6
  store ptr null, ptr %46, align 8, !tbaa !29
  %47 = load ptr, ptr %2, align 8, !tbaa !3
  %48 = getelementptr inbounds nuw %struct.pmix_group_tracker_t, ptr %47, i32 0, i32 7
  store i64 0, ptr %48, align 8, !tbaa !30
  %49 = load ptr, ptr %2, align 8, !tbaa !3
  %50 = getelementptr inbounds nuw %struct.pmix_group_tracker_t, ptr %49, i32 0, i32 8
  store ptr null, ptr %50, align 8, !tbaa !31
  %51 = load ptr, ptr %2, align 8, !tbaa !3
  %52 = getelementptr inbounds nuw %struct.pmix_group_tracker_t, ptr %51, i32 0, i32 9
  store i64 0, ptr %52, align 8, !tbaa !32
  %53 = load ptr, ptr %2, align 8, !tbaa !3
  %54 = getelementptr inbounds nuw %struct.pmix_group_tracker_t, ptr %53, i32 0, i32 10
  store ptr null, ptr %54, align 8, !tbaa !33
  %55 = load ptr, ptr %2, align 8, !tbaa !3
  %56 = getelementptr inbounds nuw %struct.pmix_group_tracker_t, ptr %55, i32 0, i32 11
  store i64 0, ptr %56, align 8, !tbaa !34
  %57 = load ptr, ptr %2, align 8, !tbaa !3
  %58 = getelementptr inbounds nuw %struct.pmix_group_tracker_t, ptr %57, i32 0, i32 13
  store ptr null, ptr %58, align 8, !tbaa !35
  %59 = load ptr, ptr %2, align 8, !tbaa !3
  %60 = getelementptr inbounds nuw %struct.pmix_group_tracker_t, ptr %59, i32 0, i32 12
  store ptr null, ptr %60, align 8, !tbaa !36
  %61 = load ptr, ptr %2, align 8, !tbaa !3
  %62 = getelementptr inbounds nuw %struct.pmix_group_tracker_t, ptr %61, i32 0, i32 14
  store ptr null, ptr %62, align 8, !tbaa !37
  ret void
}